#include <math.h>
#include <stdio.h>
#include <stdlib.h>
#include <string.h>

int main()
{
	char a[100];
	int i,s;
	gets(a);
	for (i=0;i<=99;i++)
	{
		if (a[i]=='\0') break;
		if (a[i]=='.') {printf(".");break;}
		if (a[i]!=' ') printf("%c",a[i]);
		else if (a[i-1]!=' ') printf(" ");
	}
	return 0;
}
